target datalayout = "e-m:e-p270:32:32-p271:32:32-p272:64:64-i64:64-i128:128-f80:128-n8:16:32:64-S128"
target triple = "x86_64-pc-linux-gnu"

%struct.pcre2_memctl = type { ptr, ptr, ptr }
%struct.sljit_compiler = type { i32, i32, ptr, ptr, ptr, ptr, ptr, ptr, ptr, ptr, ptr, ptr, ptr, ptr, i32, i32, i32, i32, i32, i64, i64, i64, i32 }
%struct.sljit_memory_fragment = type { ptr, i64, [1 x i8] }

; Function Attrs: nounwind uwtable
define internal ptr @pcre2_jit_malloc(i64 noundef %0, ptr noundef %1) #0 {
  %3 = alloca i64, align 8
  %4 = alloca ptr, align 8
  %5 = alloca ptr, align 8
  store i64 %0, ptr %3, align 8
  store ptr %1, ptr %4, align 8
  %6 = load ptr, ptr %4, align 8
  store ptr %6, ptr %5, align 8
  %7 = load ptr, ptr %5, align 8
  %8 = getelementptr inbounds %struct.pcre2_memctl, ptr %7, i32 0, i32 0
  %9 = load ptr, ptr %8, align 8
  %10 = load i64, ptr %3, align 8
  %11 = load ptr, ptr %5, align 8
  %12 = getelementptr inbounds %struct.pcre2_memctl, ptr %11, i32 0, i32 2
  %13 = load ptr, ptr %12, align 8
  %14 = call ptr %9(i64 noundef %10, ptr noundef %13)
  ret ptr %14
}

; Function Attrs: nounwind uwtable
define internal ptr @ensure_buf(ptr noundef %0, i64 noundef %1) #0 {
  %3 = alloca ptr, align 8
  %4 = alloca ptr, align 8
  %5 = alloca i64, align 8
  %6 = alloca ptr, align 8
  %7 = alloca ptr, align 8
  store ptr %0, ptr %4, align 8
  store i64 %1, ptr %5, align 8
  br label %8

8:                                                ; preds = %2
  br label %9

9:                                                ; preds = %8
  %10 = load ptr, ptr %4, align 8
  %11 = getelementptr inbounds %struct.sljit_compiler, ptr %10, i32 0, i32 12
  %12 = load ptr, ptr %11, align 8
  %13 = getelementptr inbounds %struct.sljit_memory_fragment, ptr %12, i32 0, i32 1
  %14 = load i64, ptr %13, align 8
  %15 = load i64, ptr %5, align 8
  %16 = add i64 %14, %15
  %17 = icmp ule i64 %16, sub (i64 4096, i64 sub nsw (i64 ptrtoint (ptr getelementptr inbounds (%struct.sljit_memory_fragment, ptr inttoptr (i64 16 to ptr), i32 0, i32 2) to i64), i64 16))
  br i1 %17, label %18, label %38

18:                                               ; preds = %9
  %19 = load ptr, ptr %4, align 8
  %20 = getelementptr inbounds %struct.sljit_compiler, ptr %19, i32 0, i32 12
  %21 = load ptr, ptr %20, align 8
  %22 = getelementptr inbounds %struct.sljit_memory_fragment, ptr %21, i32 0, i32 2
  %23 = getelementptr inbounds [1 x i8], ptr %22, i64 0, i64 0
  %24 = load ptr, ptr %4, align 8
  %25 = getelementptr inbounds %struct.sljit_compiler, ptr %24, i32 0, i32 12
  %26 = load ptr, ptr %25, align 8
  %27 = getelementptr inbounds %struct.sljit_memory_fragment, ptr %26, i32 0, i32 1
  %28 = load i64, ptr %27, align 8
  %29 = getelementptr inbounds i8, ptr %23, i64 %28
  store ptr %29, ptr %6, align 8
  %30 = load i64, ptr %5, align 8
  %31 = load ptr, ptr %4, align 8
  %32 = getelementptr inbounds %struct.sljit_compiler, ptr %31, i32 0, i32 12
  %33 = load ptr, ptr %32, align 8
  %34 = getelementptr inbounds %struct.sljit_memory_fragment, ptr %33, i32 0, i32 1
  %35 = load i64, ptr %34, align 8
  %36 = add i64 %35, %30
  store i64 %36, ptr %34, align 8
  %37 = load ptr, ptr %6, align 8
  store ptr %37, ptr %3, align 8
  br label %69

38:                                               ; preds = %9
  %39 = load ptr, ptr %4, align 8
  %40 = getelementptr inbounds %struct.sljit_compiler, ptr %39, i32 0, i32 10
  %41 = load ptr, ptr %40, align 8
  %42 = call ptr @pcre2_jit_malloc(i64 noundef 4096, ptr noundef %41)
  store ptr %42, ptr %7, align 8
  br label %43

43:                                               ; preds = %38
  %44 = load ptr, ptr %7, align 8
  %45 = icmp ne ptr %44, null
  %46 = xor i1 %45, true
  %47 = zext i1 %46 to i32
  %48 = sext i32 %47 to i64
  %49 = icmp ne i64 %48, 0
  br i1 %49, label %50, label %53

50:                                               ; preds = %43
  %51 = load ptr, ptr %4, align 8
  %52 = getelementptr inbounds %struct.sljit_compiler, ptr %51, i32 0, i32 0
  store i32 2, ptr %52, align 8
  store ptr null, ptr %3, align 8
  br label %69

53:                                               ; preds = %43
  br label %54

54:                                               ; preds = %53
  %55 = load ptr, ptr %4, align 8
  %56 = getelementptr inbounds %struct.sljit_compiler, ptr %55, i32 0, i32 12
  %57 = load ptr, ptr %56, align 8
  %58 = load ptr, ptr %7, align 8
  %59 = getelementptr inbounds %struct.sljit_memory_fragment, ptr %58, i32 0, i32 0
  store ptr %57, ptr %59, align 8
  %60 = load ptr, ptr %7, align 8
  %61 = load ptr, ptr %4, align 8
  %62 = getelementptr inbounds %struct.sljit_compiler, ptr %61, i32 0, i32 12
  store ptr %60, ptr %62, align 8
  %63 = load i64, ptr %5, align 8
  %64 = load ptr, ptr %7, align 8
  %65 = getelementptr inbounds %struct.sljit_memory_fragment, ptr %64, i32 0, i32 1
  store i64 %63, ptr %65, align 8
  %66 = load ptr, ptr %7, align 8
  %67 = getelementptr inbounds %struct.sljit_memory_fragment, ptr %66, i32 0, i32 2
  %68 = getelementptr inbounds [1 x i8], ptr %67, i64 0, i64 0
  store ptr %68, ptr %3, align 8
  br label %69

69:                                               ; preds = %54, %50, %18
  %70 = load ptr, ptr %3, align 8
  ret ptr %70
}