; Function Attrs: nounwind uwtable
define internal fastcc ptr @ensure_buf(ptr nocapture noundef %0, i64 noundef %1) unnamed_addr #0 {
  %3 = getelementptr inbounds i8, ptr %0, i64 88
  %4 = load ptr, ptr %3, align 8
  %5 = getelementptr inbounds i8, ptr %4, i64 8
  %6 = load i64, ptr %5, align 8
  %7 = add i64 %6, %1
  %8 = icmp ult i64 %7, 4081
  br i1 %8, label %9, label %12

9:                                                ; preds = %2
  %10 = getelementptr inbounds i8, ptr %4, i64 16
  %11 = getelementptr inbounds i8, ptr %10, i64 %6
  store i64 %7, ptr %5, align 8
  br label %22

12:                                               ; preds = %2
  %13 = getelementptr inbounds i8, ptr %0, i64 72
  %14 = load ptr, ptr %13, align 8
  %.val = load ptr, ptr %14, align 8
  %15 = getelementptr i8, ptr %14, i64 16
  %.val18 = load ptr, ptr %15, align 8
  %16 = tail call ptr %.val(i64 noundef 4096, ptr noundef %.val18) #18
  %.not = icmp eq ptr %16, null
  br i1 %.not, label %17, label %18

17:                                               ; preds = %12
  store i32 2, ptr %0, align 8
  br label %22

18:                                               ; preds = %12
  %19 = load ptr, ptr %3, align 8
  store ptr %19, ptr %16, align 8
  store ptr %16, ptr %3, align 8
  %20 = getelementptr inbounds i8, ptr %16, i64 8
  store i64 %1, ptr %20, align 8
  %21 = getelementptr inbounds i8, ptr %16, i64 16
  br label %22

22:                                               ; preds = %18, %17, %9
  %.0 = phi ptr [ %11, %9 ], [ null, %17 ], [ %21, %18 ]
  ret ptr %.0
}